target datalayout = "e-m:e-p270:32:32-p271:32:32-p272:64:64-i64:64-i128:128-f80:128-n8:16:32:64-S128"
target triple = "x86_64-pc-linux-gnu"

%struct.JoinPathExtraData = type { ptr, ptr, i8, ptr, %struct.SemiAntiJoinFactors, ptr }
%struct.SemiAntiJoinFactors = type { double, double }
%struct.Path = type { i32, i32, ptr, ptr, ptr, i8, i8, i32, double, i32, double, double, ptr }
%struct.ParamPathInfo = type { i32, ptr, double, ptr, ptr }
%struct.JoinCostWorkspace = type { i32, double, double, double, double, double, double, double, double, double, i32, i32, double }

; Function Attrs: nounwind uwtable
define internal void @try_partial_hashjoin_path(ptr noundef %0, ptr noundef %1, ptr noundef %2, ptr noundef %3, ptr noundef %4, i32 noundef %5, ptr noundef %6, i1 noundef zeroext %7) #0 {
  %9 = alloca ptr, align 8
  %10 = alloca ptr, align 8
  %11 = alloca ptr, align 8
  %12 = alloca ptr, align 8
  %13 = alloca ptr, align 8
  %14 = alloca i32, align 4
  %15 = alloca ptr, align 8
  %16 = alloca i8, align 1
  %17 = alloca %struct.JoinCostWorkspace, align 8
  %18 = alloca i32, align 4
  store ptr %0, ptr %9, align 8
  store ptr %1, ptr %10, align 8
  store ptr %2, ptr %11, align 8
  store ptr %3, ptr %12, align 8
  store ptr %4, ptr %13, align 8
  store i32 %5, ptr %14, align 4
  store ptr %6, ptr %15, align 8
  %19 = zext i1 %7 to i8
  store i8 %19, ptr %16, align 1
  call void @llvm.lifetime.start.p0(i64 96, ptr %17) #6
  %20 = load ptr, ptr %12, align 8
  %21 = getelementptr inbounds nuw %struct.Path, ptr %20, i32 0, i32 4
  %22 = load ptr, ptr %21, align 8
  %23 = icmp ne ptr %22, null
  br i1 %23, label %24, label %30

24:                                               ; preds = %8
  %25 = load ptr, ptr %12, align 8
  %26 = getelementptr inbounds nuw %struct.Path, ptr %25, i32 0, i32 4
  %27 = load ptr, ptr %26, align 8
  %28 = getelementptr inbounds nuw %struct.ParamPathInfo, ptr %27, i32 0, i32 1
  %29 = load ptr, ptr %28, align 8
  br label %31

30:                                               ; preds = %8
  br label %31

31:                                               ; preds = %30, %24
  %32 = phi ptr [ %29, %24 ], [ null, %30 ]
  %33 = icmp eq ptr %32, null
  br i1 %33, label %35, label %34

34:                                               ; preds = %31
  store i32 1, ptr %18, align 4
  br label %66

35:                                               ; preds = %31
  %36 = load ptr, ptr %9, align 8
  %37 = load i32, ptr %14, align 4
  %38 = load ptr, ptr %13, align 8
  %39 = load ptr, ptr %11, align 8
  %40 = load ptr, ptr %12, align 8
  %41 = load ptr, ptr %15, align 8
  %42 = load i8, ptr %16, align 1, !range !4, !noundef !5
  %43 = trunc i8 %42 to i1
  call void @initial_cost_hashjoin(ptr noundef %36, ptr noundef %17, i32 noundef %37, ptr noundef %38, ptr noundef %39, ptr noundef %40, ptr noundef %41, i1 noundef zeroext %43)
  %44 = load ptr, ptr %10, align 8
  %45 = getelementptr inbounds nuw %struct.JoinCostWorkspace, ptr %17, i32 0, i32 0
  %46 = load i32, ptr %45, align 8
  %47 = getelementptr inbounds nuw %struct.JoinCostWorkspace, ptr %17, i32 0, i32 2
  %48 = load double, ptr %47, align 8
  %49 = call zeroext i1 @add_partial_path_precheck(ptr noundef %44, i32 noundef %46, double noundef %48, ptr noundef null)
  br i1 %49, label %51, label %50

50:                                               ; preds = %35
  store i32 1, ptr %18, align 4
  br label %66

51:                                               ; preds = %35
  %52 = load ptr, ptr %10, align 8
  %53 = load ptr, ptr %9, align 8
  %54 = load ptr, ptr %10, align 8
  %55 = load i32, ptr %14, align 4
  %56 = load ptr, ptr %15, align 8
  %57 = load ptr, ptr %11, align 8
  %58 = load ptr, ptr %12, align 8
  %59 = load i8, ptr %16, align 1, !range !4, !noundef !5
  %60 = trunc i8 %59 to i1
  %61 = load ptr, ptr %15, align 8
  %62 = getelementptr inbounds nuw %struct.JoinPathExtraData, ptr %61, i32 0, i32 0
  %63 = load ptr, ptr %62, align 8
  %64 = load ptr, ptr %13, align 8
  %65 = call ptr @create_hashjoin_path(ptr noundef %53, ptr noundef %54, i32 noundef %55, ptr noundef %17, ptr noundef %56, ptr noundef %57, ptr noundef %58, i1 noundef zeroext %60, ptr noundef %63, ptr noundef null, ptr noundef %64)
  call void @add_partial_path(ptr noundef %52, ptr noundef %65)
  store i32 0, ptr %18, align 4
  br label %66

66:                                               ; preds = %51, %50, %34
  call void @llvm.lifetime.end.p0(i64 96, ptr %17) #6
  %67 = load i32, ptr %18, align 4
  switch i32 %67, label %69 [
    i32 0, label %68
    i32 1, label %68
  ]

68:                                               ; preds = %66, %66
  ret void

69:                                               ; preds = %66
  unreachable
}