; Function Attrs: nounwind uwtable
define internal fastcc void @try_partial_hashjoin_path(ptr noundef %0, ptr noundef %1, ptr noundef %2, ptr noundef %3, ptr noundef nonnull %4, i32 noundef range(i32 10, 8) %5, ptr noundef nonnull %6, i1 noundef zeroext %7) unnamed_addr #0 {
  %9 = alloca %struct.JoinCostWorkspace, align 8
  call void @llvm.lifetime.start.p0(i64 96, ptr nonnull %9) #5
  %10 = getelementptr inbounds nuw i8, ptr %3, i64 24
  %11 = load ptr, ptr %10, align 8
  %.not = icmp eq ptr %11, null
  br i1 %.not, label %.critedge, label %12

12:                                               ; preds = %8
  %13 = getelementptr inbounds nuw i8, ptr %11, i64 8
  %14 = load ptr, ptr %13, align 8
  %15 = icmp eq ptr %14, null
  br i1 %15, label %.critedge, label %23

.critedge:                                        ; preds = %8, %12
  call void @initial_cost_hashjoin(ptr noundef %0, ptr noundef nonnull %9, i32 noundef %5, ptr noundef nonnull %4, ptr noundef %2, ptr noundef nonnull %3, ptr noundef nonnull %6, i1 noundef zeroext %7) #5
  %16 = load i32, ptr %9, align 8
  %17 = getelementptr inbounds nuw i8, ptr %9, i64 16
  %18 = load double, ptr %17, align 8
  %19 = call zeroext i1 @add_partial_path_precheck(ptr noundef %1, i32 noundef %16, double noundef %18, ptr noundef null) #5
  br i1 %19, label %20, label %23

20:                                               ; preds = %.critedge
  %21 = load ptr, ptr %6, align 8
  %22 = call ptr @create_hashjoin_path(ptr noundef %0, ptr noundef %1, i32 noundef %5, ptr noundef nonnull %9, ptr noundef nonnull %6, ptr noundef %2, ptr noundef nonnull %3, i1 noundef zeroext %7, ptr noundef %21, ptr noundef null, ptr noundef nonnull %4) #5
  call void @add_partial_path(ptr noundef %1, ptr noundef %22) #5
  br label %23

23:                                               ; preds = %.critedge, %12, %20
  call void @llvm.lifetime.end.p0(i64 96, ptr nonnull %9) #5
  ret void
}